; Function Attrs: mustprogress nounwind uwtable
define hidden void @_ZNK11ProfileData12print_sharedEP12outputStreamPKcS3_(ptr nocapture noundef nonnull readonly align 8 dereferenceable(16) %0, ptr noundef nonnull %1, ptr noundef %2, ptr noundef %3) local_unnamed_addr #2 align 2 {
  %5 = alloca [100 x i8], align 16
  %6 = getelementptr inbounds i8, ptr %0, i64 8
  %7 = load ptr, ptr %6, align 8
  %8 = getelementptr inbounds i8, ptr %7, i64 2
  %9 = load i16, ptr %8, align 2
  %10 = zext i16 %9 to i32
  tail call void (ptr, ptr, ...) @_ZN12outputStream5printEPKcz(ptr noundef nonnull align 8 dereferenceable(56) %1, ptr noundef nonnull @.str.7, i32 noundef %10) #20
  %11 = tail call noundef i32 @_ZN12outputStream7fill_toEi(ptr noundef nonnull align 8 dereferenceable(56) %1, i32 noundef 17) #20
  tail call void (ptr, ptr, ...) @_ZN12outputStream5printEPKcz(ptr noundef nonnull align 8 dereferenceable(56) %1, ptr noundef nonnull @.str.8, ptr noundef %2) #20
  %12 = tail call noundef i32 @_ZN12outputStream7fill_toEi(ptr noundef nonnull align 8 dereferenceable(56) %1, i32 noundef 36) #20
  %13 = load ptr, ptr %6, align 8
  %14 = getelementptr inbounds i8, ptr %13, i64 4
  %15 = load i32, ptr %14, align 4
  %.not = icmp eq i32 %15, 0
  br i1 %.not, label %18, label %16

16:                                               ; preds = %4
  %17 = call noundef ptr @_ZN14Deoptimization17format_trap_stateEPcmi(ptr noundef nonnull %5, i64 noundef 100, i32 noundef %15) #20
  call void (ptr, ptr, ...) @_ZN12outputStream5printEPKcz(ptr noundef nonnull align 8 dereferenceable(56) %1, ptr noundef nonnull @.str.9, ptr noundef %17) #20
  br label %18

18:                                               ; preds = %16, %4
  %.not16 = icmp eq ptr %3, null
  br i1 %.not16, label %20, label %19

19:                                               ; preds = %18
  call void (ptr, ptr, ...) @_ZN12outputStream5printEPKcz(ptr noundef nonnull align 8 dereferenceable(56) %1, ptr noundef nonnull @.str.8, ptr noundef nonnull %3) #20
  br label %20

20:                                               ; preds = %19, %18
  %21 = load ptr, ptr %6, align 8
  %22 = getelementptr inbounds i8, ptr %21, i64 1
  %23 = load volatile i8, ptr %22, align 1
  call void asm sideeffect "", "~{memory},~{dirflag},~{fpsr},~{flags}"() #20, !srcloc !8
  %.not17 = icmp eq i8 %23, 0
  br i1 %.not17, label %26, label %24

24:                                               ; preds = %20
  %25 = zext i8 %23 to i32
  call void (ptr, ptr, ...) @_ZN12outputStream5printEPKcz(ptr noundef nonnull align 8 dereferenceable(56) %1, ptr noundef nonnull @.str.10, i32 noundef %25) #20
  br label %26

26:                                               ; preds = %24, %20
  ret void
}